; Function Attrs: inlinehint nounwind uwtable
define internal fastcc void @strbuf_complete(ptr noundef %0, i8 noundef signext range(i8 10, 48) %1) unnamed_addr #6 {
  %3 = getelementptr inbounds nuw i8, ptr %0, i64 8
  %4 = load i64, ptr %3, align 8, !tbaa !20
  %.not = icmp eq i64 %4, 0
  br i1 %.not, label %19, label %5

5:                                                ; preds = %2
  %6 = getelementptr inbounds nuw i8, ptr %0, i64 16
  %7 = load ptr, ptr %6, align 8, !tbaa !14
  %8 = getelementptr i8, ptr %7, i64 %4
  %9 = getelementptr i8, ptr %8, i64 -1
  %10 = load i8, ptr %9, align 1, !tbaa !4
  %.not6 = icmp eq i8 %10, %1
  br i1 %.not6, label %19, label %11

11:                                               ; preds = %5
  %12 = load i64, ptr %0, align 8, !tbaa !22
  %.not.i.i = icmp eq i64 %12, 0
  %.neg.i = add i64 %4, 1
  %.not.i = icmp eq i64 %12, %.neg.i
  %or.cond = or i1 %.not.i.i, %.not.i
  br i1 %or.cond, label %strbuf_avail.exit.thread.i, label %strbuf_addch.exit

strbuf_avail.exit.thread.i:                       ; preds = %11
  tail call void @strbuf_grow(ptr noundef nonnull %0, i64 noundef 1) #25
  %.pre.i = load i64, ptr %3, align 8, !tbaa !20
  %.pre7.i = add i64 %.pre.i, 1
  %.pre = load ptr, ptr %6, align 8, !tbaa !14
  br label %strbuf_addch.exit

strbuf_addch.exit:                                ; preds = %11, %strbuf_avail.exit.thread.i
  %13 = phi ptr [ %.pre, %strbuf_avail.exit.thread.i ], [ %7, %11 ]
  %.pre-phi.i = phi i64 [ %.pre7.i, %strbuf_avail.exit.thread.i ], [ %.neg.i, %11 ]
  %14 = phi i64 [ %.pre.i, %strbuf_avail.exit.thread.i ], [ %4, %11 ]
  store i64 %.pre-phi.i, ptr %3, align 8, !tbaa !20
  %15 = getelementptr inbounds nuw i8, ptr %13, i64 %14
  store i8 %1, ptr %15, align 1, !tbaa !4
  %16 = load ptr, ptr %6, align 8, !tbaa !14
  %17 = load i64, ptr %3, align 8, !tbaa !20
  %18 = getelementptr inbounds nuw i8, ptr %16, i64 %17
  store i8 0, ptr %18, align 1, !tbaa !4
  br label %19

19:                                               ; preds = %strbuf_addch.exit, %5, %2
  ret void
}